target datalayout = "e-m:e-p270:32:32-p271:32:32-p272:64:64-i64:64-i128:128-f80:128-n8:16:32:64-S128"
target triple = "x86_64-pc-linux-gnu"

%struct.rb_method_entry_struct = type { i64, i64, ptr, i64, i64 }
%struct.rb_method_definition_struct = type { i64, %union.anon.15, i64, i64 }
%union.anon.15 = type { %struct.rb_method_cfunc_struct }
%struct.rb_method_cfunc_struct = type { ptr, ptr, i32 }
%struct.rb_method_refined_struct = type { ptr }

; Function Attrs: nounwind sspstrong uwtable
define internal i32 @cache_clear_refined_method(i64 noundef %0, i64 noundef %1, ptr noundef %2) #0 {
  %4 = alloca i64, align 8
  %5 = alloca i64, align 8
  %6 = alloca ptr, align 8
  %7 = alloca ptr, align 8
  %8 = alloca i64, align 8
  store i64 %0, ptr %4, align 8, !tbaa !7
  store i64 %1, ptr %5, align 8, !tbaa !7
  store ptr %2, ptr %6, align 8, !tbaa !29
  call void @llvm.lifetime.start.p0(i64 8, ptr %7) #23
  %9 = load i64, ptr %5, align 8, !tbaa !7
  %10 = inttoptr i64 %9 to ptr
  store ptr %10, ptr %7, align 8, !tbaa !96
  %11 = load ptr, ptr %7, align 8, !tbaa !96
  %12 = getelementptr inbounds nuw %struct.rb_method_entry_struct, ptr %11, i32 0, i32 2
  %13 = load ptr, ptr %12, align 8, !tbaa !100
  %14 = load i64, ptr %13, align 8
  %15 = and i64 %14, 15
  %16 = trunc i64 %15 to i32
  %17 = icmp eq i32 %16, 11
  br i1 %17, label %18, label %33

18:                                               ; preds = %3
  %19 = load ptr, ptr %7, align 8, !tbaa !96
  %20 = getelementptr inbounds nuw %struct.rb_method_entry_struct, ptr %19, i32 0, i32 2
  %21 = load ptr, ptr %20, align 8, !tbaa !100
  %22 = getelementptr inbounds nuw %struct.rb_method_definition_struct, ptr %21, i32 0, i32 1
  %23 = getelementptr inbounds nuw %struct.rb_method_refined_struct, ptr %22, i32 0, i32 0
  %24 = load ptr, ptr %23, align 8, !tbaa !50
  %25 = icmp ne ptr %24, null
  br i1 %25, label %26, label %33

26:                                               ; preds = %18
  call void @llvm.lifetime.start.p0(i64 8, ptr %8) #23
  %27 = load ptr, ptr %6, align 8, !tbaa !29
  %28 = ptrtoint ptr %27 to i64
  store i64 %28, ptr %8, align 8, !tbaa !7
  %29 = load i64, ptr %8, align 8, !tbaa !7
  %30 = load ptr, ptr %7, align 8, !tbaa !96
  %31 = getelementptr inbounds nuw %struct.rb_method_entry_struct, ptr %30, i32 0, i32 3
  %32 = load i64, ptr %31, align 8, !tbaa !151
  call void @rb_clear_method_cache(i64 noundef %29, i64 noundef %32)
  call void @llvm.lifetime.end.p0(i64 8, ptr %8) #23
  br label %33

33:                                               ; preds = %26, %18, %3
  call void @llvm.lifetime.end.p0(i64 8, ptr %7) #23
  ret i32 0
}