; Function Attrs: nounwind sspstrong uwtable
define internal noundef i32 @cache_clear_refined_method(i64 %0, i64 noundef %1, ptr noundef %2) #0 {
  %4 = inttoptr i64 %1 to ptr
  %5 = getelementptr inbounds nuw i8, ptr %4, i64 16
  %6 = load ptr, ptr %5, align 8, !tbaa !57
  %7 = load i64, ptr %6, align 8
  %8 = and i64 %7, 15
  %9 = icmp eq i64 %8, 11
  br i1 %9, label %10, label %17

10:                                               ; preds = %3
  %11 = getelementptr inbounds nuw i8, ptr %6, i64 8
  %12 = load ptr, ptr %11, align 8, !tbaa !32
  %.not = icmp eq ptr %12, null
  br i1 %.not, label %17, label %13

13:                                               ; preds = %10
  %14 = ptrtoint ptr %2 to i64
  %15 = getelementptr inbounds nuw i8, ptr %4, i64 24
  %16 = load i64, ptr %15, align 8, !tbaa !116
  tail call void @rb_clear_method_cache(i64 noundef %14, i64 noundef %16) #19
  br label %17

17:                                               ; preds = %13, %10, %3
  ret i32 0
}